
14.LED_Blink_with_Overflow_in_CTC_mode.elf:     file format elf32-avr

Sections:
Idx Name          Size      VMA       LMA       File off  Algn
  0 .text         000000b8  00000000  00000000  00000054  2**1
                  CONTENTS, ALLOC, LOAD, READONLY, CODE
  1 .data         00000000  00800060  00800060  0000010c  2**0
                  CONTENTS, ALLOC, LOAD, DATA
  2 .comment      00000030  00000000  00000000  0000010c  2**0
                  CONTENTS, READONLY
  3 .note.gnu.avr.deviceinfo 0000003c  00000000  00000000  0000013c  2**2
                  CONTENTS, READONLY
  4 .debug_aranges 00000028  00000000  00000000  00000178  2**0
                  CONTENTS, READONLY, DEBUGGING
  5 .debug_info   0000058f  00000000  00000000  000001a0  2**0
                  CONTENTS, READONLY, DEBUGGING
  6 .debug_abbrev 00000511  00000000  00000000  0000072f  2**0
                  CONTENTS, READONLY, DEBUGGING
  7 .debug_line   000001f6  00000000  00000000  00000c40  2**0
                  CONTENTS, READONLY, DEBUGGING
  8 .debug_frame  00000048  00000000  00000000  00000e38  2**2
                  CONTENTS, READONLY, DEBUGGING
  9 .debug_str    00000327  00000000  00000000  00000e80  2**0
                  CONTENTS, READONLY, DEBUGGING
 10 .debug_loc    00000049  00000000  00000000  000011a7  2**0
                  CONTENTS, READONLY, DEBUGGING
 11 .debug_ranges 00000018  00000000  00000000  000011f0  2**0
                  CONTENTS, READONLY, DEBUGGING

Disassembly of section .text:

00000000 <__vectors>:
   0:	0c 94 2a 00 	jmp	0x54	; 0x54 <__ctors_end>
   4:	0c 94 34 00 	jmp	0x68	; 0x68 <__bad_interrupt>
   8:	0c 94 34 00 	jmp	0x68	; 0x68 <__bad_interrupt>
   c:	0c 94 34 00 	jmp	0x68	; 0x68 <__bad_interrupt>
  10:	0c 94 34 00 	jmp	0x68	; 0x68 <__bad_interrupt>
  14:	0c 94 34 00 	jmp	0x68	; 0x68 <__bad_interrupt>
  18:	0c 94 34 00 	jmp	0x68	; 0x68 <__bad_interrupt>
  1c:	0c 94 34 00 	jmp	0x68	; 0x68 <__bad_interrupt>
  20:	0c 94 34 00 	jmp	0x68	; 0x68 <__bad_interrupt>
  24:	0c 94 36 00 	jmp	0x6c	; 0x6c <__vector_9>
  28:	0c 94 34 00 	jmp	0x68	; 0x68 <__bad_interrupt>
  2c:	0c 94 34 00 	jmp	0x68	; 0x68 <__bad_interrupt>
  30:	0c 94 34 00 	jmp	0x68	; 0x68 <__bad_interrupt>
  34:	0c 94 34 00 	jmp	0x68	; 0x68 <__bad_interrupt>
  38:	0c 94 34 00 	jmp	0x68	; 0x68 <__bad_interrupt>
  3c:	0c 94 34 00 	jmp	0x68	; 0x68 <__bad_interrupt>
  40:	0c 94 34 00 	jmp	0x68	; 0x68 <__bad_interrupt>
  44:	0c 94 34 00 	jmp	0x68	; 0x68 <__bad_interrupt>
  48:	0c 94 34 00 	jmp	0x68	; 0x68 <__bad_interrupt>
  4c:	0c 94 34 00 	jmp	0x68	; 0x68 <__bad_interrupt>
  50:	0c 94 34 00 	jmp	0x68	; 0x68 <__bad_interrupt>

00000054 <__ctors_end>:
  54:	11 24       	eor	r1, r1
  56:	1f be       	out	0x3f, r1	; 63
  58:	cf e5       	ldi	r28, 0x5F	; 95
  5a:	d8 e0       	ldi	r29, 0x08	; 8
  5c:	de bf       	out	0x3e, r29	; 62
  5e:	cd bf       	out	0x3d, r28	; 61
  60:	0e 94 4c 00 	call	0x98	; 0x98 <main>
  64:	0c 94 5a 00 	jmp	0xb4	; 0xb4 <_exit>

00000068 <__bad_interrupt>:
  68:	0c 94 00 00 	jmp	0	; 0x0 <__vectors>

0000006c <__vector_9>:

#include <avr/io.h>
#include <avr/interrupt.h>

ISR(TIMER1_OVF_vect)
{
  6c:	1f 92       	push	r1
  6e:	0f 92       	push	r0
  70:	0f b6       	in	r0, 0x3f	; 63
  72:	0f 92       	push	r0
  74:	11 24       	eor	r1, r1
  76:	8f 93       	push	r24
  78:	9f 93       	push	r25
	PORTB ^= (1 << PORTB0);
  7a:	98 b3       	in	r25, 0x18	; 24
  7c:	81 e0       	ldi	r24, 0x01	; 1
  7e:	89 27       	eor	r24, r25
  80:	88 bb       	out	0x18, r24	; 24
	TCNT1 = 49910;
  82:	86 ef       	ldi	r24, 0xF6	; 246
  84:	92 ec       	ldi	r25, 0xC2	; 194
  86:	9d bd       	out	0x2d, r25	; 45
  88:	8c bd       	out	0x2c, r24	; 44
}
  8a:	9f 91       	pop	r25
  8c:	8f 91       	pop	r24
  8e:	0f 90       	pop	r0
  90:	0f be       	out	0x3f, r0	; 63
  92:	0f 90       	pop	r0
  94:	1f 90       	pop	r1
  96:	18 95       	reti

00000098 <main>:

int main(void)
{
    DDRB |= (1 << DDB0);
  98:	b8 9a       	sbi	0x17, 0	; 23
	PORTB &= ~(1 << PORTB0);
  9a:	c0 98       	cbi	0x18, 0	; 24
	TCCR1B |= (1 << CS11);
  9c:	8e b5       	in	r24, 0x2e	; 46
  9e:	82 60       	ori	r24, 0x02	; 2
  a0:	8e bd       	out	0x2e, r24	; 46
	TIMSK |= (1 << TOIE1);
  a2:	89 b7       	in	r24, 0x39	; 57
  a4:	84 60       	ori	r24, 0x04	; 4
  a6:	89 bf       	out	0x39, r24	; 57
	sei();
  a8:	78 94       	sei
	TCNT1 = 49910;
  aa:	86 ef       	ldi	r24, 0xF6	; 246
  ac:	92 ec       	ldi	r25, 0xC2	; 194
  ae:	9d bd       	out	0x2d, r25	; 45
  b0:	8c bd       	out	0x2c, r24	; 44
  b2:	ff cf       	rjmp	.-2      	; 0xb2 <main+0x1a>

000000b4 <_exit>:
  b4:	f8 94       	cli

000000b6 <__stop_program>:
  b6:	ff cf       	rjmp	.-2      	; 0xb6 <__stop_program>
